target datalayout = "e-m:e-p270:32:32-p271:32:32-p272:64:64-i64:64-i128:128-f80:128-n8:16:32:64-S128"
target triple = "x86_64-pc-linux-gnu"

%class.GrowableArrayBase = type { i32, i32 }
%class.GrowableArrayMetadata = type { i64 }
%"class.ciTypeFlow::Block" = type { ptr, ptr, ptr, ptr, %class.GrowableArray.0, ptr, ptr, i32, i32, i32, i32, i8, i8, i8, i8, i8, ptr, ptr, ptr }
%class.GrowableArray.0 = type { %class.GrowableArrayWithAllocator.1, %class.GrowableArrayMetadata }
%class.GrowableArrayWithAllocator.1 = type { %class.GrowableArrayView.2 }
%class.GrowableArrayView.2 = type { %class.GrowableArrayBase, ptr }

; Function Attrs: mustprogress nounwind uwtable
define hidden void @_ZN10ciTypeFlow5Block7df_initEv(ptr noundef nonnull align 8 dereferenceable(120) %0) #1 align 2 {
  %2 = alloca ptr, align 8
  store ptr %0, ptr %2, align 8
  %3 = load ptr, ptr %2, align 8
  %4 = getelementptr inbounds %"class.ciTypeFlow::Block", ptr %3, i32 0, i32 9
  store i32 -1, ptr %4, align 8
  %5 = getelementptr inbounds %"class.ciTypeFlow::Block", ptr %3, i32 0, i32 10
  store i32 -1, ptr %5, align 4
  %6 = getelementptr inbounds %"class.ciTypeFlow::Block", ptr %3, i32 0, i32 18
  store ptr null, ptr %6, align 8
  %7 = getelementptr inbounds %"class.ciTypeFlow::Block", ptr %3, i32 0, i32 12
  store i8 0, ptr %7, align 1
  %8 = getelementptr inbounds %"class.ciTypeFlow::Block", ptr %3, i32 0, i32 13
  store i8 0, ptr %8, align 2
  %9 = getelementptr inbounds %"class.ciTypeFlow::Block", ptr %3, i32 0, i32 17
  store ptr null, ptr %9, align 8
  ret void
}