; Function Attrs: mustprogress nofree norecurse nosync nounwind willreturn memory(argmem: write) uwtable
define hidden void @_ZN10ciTypeFlow5Block7df_initEv(ptr nocapture noundef nonnull writeonly align 8 dereferenceable(120) %0) local_unnamed_addr #5 align 2 {
  %2 = getelementptr inbounds i8, ptr %0, i64 80
  store i32 -1, ptr %2, align 8
  %3 = getelementptr inbounds i8, ptr %0, i64 84
  store i32 -1, ptr %3, align 4
  %4 = getelementptr inbounds i8, ptr %0, i64 89
  store i8 0, ptr %4, align 1
  %5 = getelementptr inbounds i8, ptr %0, i64 90
  store i8 0, ptr %5, align 2
  %6 = getelementptr inbounds i8, ptr %0, i64 104
  tail call void @llvm.memset.p0.i64(ptr noundef nonnull align 8 dereferenceable(16) %6, i8 0, i64 16, i1 false)
  ret void
}